target datalayout = "e-m:e-p270:32:32-p271:32:32-p272:64:64-i64:64-i128:128-f80:128-n8:16:32:64-S128"
target triple = "x86_64-pc-linux-gnu"

%"class.arrow::Status" = type { ptr }
%"class.std::__cxx11::basic_string" = type { %"struct.std::__cxx11::basic_string<char>::_Alloc_hider", i64, %union.anon }
%"struct.std::__cxx11::basic_string<char>::_Alloc_hider" = type { ptr }
%union.anon = type { i64, [8 x i8] }
%"struct.arrow::Status::State" = type { i8, i8, %"class.std::__cxx11::basic_string", %"class.std::shared_ptr" }
%"class.std::shared_ptr" = type { %"class.std::__shared_ptr" }
%"class.std::__shared_ptr" = type { ptr, %"class.std::__shared_count" }
%"class.std::__shared_count" = type { ptr }

@.str.51 = private unnamed_addr constant [15 x i8] c"Wrong size on \00", align 1
@.str.52 = private unnamed_addr constant [16 x i8] c": given size = \00", align 1
@.str.53 = private unnamed_addr constant [17 x i8] c", actual size = \00", align 1

; Function Attrs: mustprogress nounwind uwtable
define linkonce_odr void @_ZN5arrow4util18EqualityComparableINS_6StatusEED2Ev(ptr noundef nonnull align 1 dereferenceable(1) %0) unnamed_addr #4 comdat align 2 {
  %2 = alloca ptr, align 8
  store ptr %0, ptr %2, align 8, !tbaa !230
  ret void
}

; Function Attrs: mustprogress nounwind uwtable
define linkonce_odr void @_ZN5arrow4util19ToStringOstreamableINS_6StatusEED2Ev(ptr noundef nonnull align 1 dereferenceable(1) %0) unnamed_addr #4 comdat align 2 {
  %2 = alloca ptr, align 8
  store ptr %0, ptr %2, align 8, !tbaa !228
  ret void
}

; Function Attrs: mustprogress nounwind uwtable
define linkonce_odr void @_ZN5arrow6StatusD2Ev(ptr noundef nonnull align 8 dereferenceable(8) %0) unnamed_addr #4 comdat align 2 {
  %2 = alloca ptr, align 8
  store ptr %0, ptr %2, align 8, !tbaa !43
  %3 = load ptr, ptr %2, align 8
  %4 = getelementptr inbounds nuw %"class.arrow::Status", ptr %3, i32 0, i32 0
  %5 = load ptr, ptr %4, align 8, !tbaa !45
  %6 = icmp ne ptr %5, null
  %7 = xor i1 %6, true
  %8 = xor i1 %7, true
  %9 = zext i1 %8 to i64
  %10 = call i64 @llvm.expect.i64(i64 %9, i64 0)
  %11 = icmp ne i64 %10, 0
  br i1 %11, label %12, label %20

12:                                               ; preds = %1
  %13 = getelementptr inbounds nuw %"class.arrow::Status", ptr %3, i32 0, i32 0
  %14 = load ptr, ptr %13, align 8, !tbaa !45
  %15 = getelementptr inbounds nuw %"struct.arrow::Status::State", ptr %14, i32 0, i32 1
  %16 = load i8, ptr %15, align 1, !tbaa !48, !range !17, !noundef !18
  %17 = trunc i8 %16 to i1
  br i1 %17, label %19, label %18

18:                                               ; preds = %12
  call void @_ZN5arrow6Status11DeleteStateEv(ptr noundef nonnull align 8 dereferenceable(8) %3) #3
  br label %19

19:                                               ; preds = %18, %12
  br label %20

20:                                               ; preds = %19, %1
  call void @_ZN5arrow4util19ToStringOstreamableINS_6StatusEED2Ev(ptr noundef nonnull align 1 dereferenceable(1) %3) #3
  call void @_ZN5arrow4util18EqualityComparableINS_6StatusEED2Ev(ptr noundef nonnull align 1 dereferenceable(1) %3) #3
  ret void
}

; Function Attrs: mustprogress uwtable
define linkonce_odr void @_ZN5arrow6Status7InvalidIJRA15_KcRPS2_RA16_S2_RlRA17_S2_S9_EEES0_DpOT_(ptr dead_on_unwind noalias writable sret(%"class.arrow::Status") align 8 %0, ptr noundef nonnull align 1 dereferenceable(15) %1, ptr noundef nonnull align 8 dereferenceable(8) %2, ptr noundef nonnull align 1 dereferenceable(16) %3, ptr noundef nonnull align 8 dereferenceable(8) %4, ptr noundef nonnull align 1 dereferenceable(17) %5, ptr noundef nonnull align 8 dereferenceable(8) %6) #5 comdat align 2 {
  %8 = alloca ptr, align 8
  %9 = alloca ptr, align 8
  %10 = alloca ptr, align 8
  %11 = alloca ptr, align 8
  %12 = alloca ptr, align 8
  %13 = alloca ptr, align 8
  %14 = alloca ptr, align 8
  store ptr %0, ptr %8, align 8
  store ptr %1, ptr %9, align 8, !tbaa !10
  store ptr %2, ptr %10, align 8, !tbaa !69
  store ptr %3, ptr %11, align 8, !tbaa !10
  store ptr %4, ptr %12, align 8, !tbaa !191
  store ptr %5, ptr %13, align 8, !tbaa !10
  store ptr %6, ptr %14, align 8, !tbaa !191
  %15 = load ptr, ptr %9, align 8, !tbaa !10
  %16 = load ptr, ptr %10, align 8, !tbaa !69
  %17 = load ptr, ptr %11, align 8, !tbaa !10
  %18 = load ptr, ptr %12, align 8, !tbaa !191
  %19 = load ptr, ptr %13, align 8, !tbaa !10
  %20 = load ptr, ptr %14, align 8, !tbaa !191
  call void @_ZN5arrow6Status8FromArgsIJRA15_KcRPS2_RA16_S2_RlRA17_S2_S9_EEES0_NS_10StatusCodeEDpOT_(ptr dead_on_unwind writable sret(%"class.arrow::Status") align 8 %0, i8 noundef signext 4, ptr noundef nonnull align 1 dereferenceable(15) %15, ptr noundef nonnull align 8 dereferenceable(8) %16, ptr noundef nonnull align 1 dereferenceable(16) %17, ptr noundef nonnull align 8 dereferenceable(8) %18, ptr noundef nonnull align 1 dereferenceable(17) %19, ptr noundef nonnull align 8 dereferenceable(8) %20)
  ret void
}

; Function Attrs: inlinehint mustprogress nounwind uwtable
define linkonce_odr noundef i64 @_ZN5arrow4util10SafeLoadAsIlEENSt9enable_ifIXsr3stdE23is_trivially_copyable_vIT_EES3_E4typeEPKh(ptr noundef %0) #8 comdat {
  %2 = alloca ptr, align 8
  %3 = alloca i64, align 8
  store ptr %0, ptr %2, align 8, !tbaa !10
  call void @llvm.lifetime.start.p0(i64 8, ptr %3) #3
  %4 = load ptr, ptr %2, align 8, !tbaa !10
  call void @llvm.memcpy.p0.p0.i64(ptr align 8 %3, ptr align 1 %4, i64 8, i1 false)
  %5 = load i64, ptr %3, align 8, !tbaa !68
  call void @llvm.lifetime.end.p0(i64 8, ptr %3) #3
  ret i64 %5
}

; Function Attrs: mustprogress uwtable
define internal void @_ZN5arrow12_GLOBAL__N_114DebugAllocatorINS0_15SystemAllocatorEE18CheckAllocatedAreaEPhlPKc(ptr noundef %0, i64 noundef %1, ptr noundef %2) #5 align 2 personality ptr @__gxx_personality_v0 {
  %4 = alloca ptr, align 8
  %5 = alloca i64, align 8
  %6 = alloca ptr, align 8
  %7 = alloca i64, align 8
  %8 = alloca %"class.arrow::Status", align 8
  %9 = alloca ptr, align 8
  %10 = alloca i32, align 4
  store ptr %0, ptr %4, align 8, !tbaa !10
  store i64 %1, ptr %5, align 8, !tbaa !68
  store ptr %2, ptr %6, align 8, !tbaa !10
  call void @llvm.lifetime.start.p0(i64 8, ptr %7) #3
  %11 = load ptr, ptr %4, align 8, !tbaa !10
  %12 = load i64, ptr %5, align 8, !tbaa !68
  %13 = getelementptr inbounds i8, ptr %11, i64 %12
  %14 = call noundef i64 @_ZN5arrow4util10SafeLoadAsIlEENSt9enable_ifIXsr3stdE23is_trivially_copyable_vIT_EES3_E4typeEPKh(ptr noundef %13)
  %15 = xor i64 -1738363128204640648, %14
  store i64 %15, ptr %7, align 8, !tbaa !68
  %16 = load i64, ptr %7, align 8, !tbaa !68
  %17 = load i64, ptr %5, align 8, !tbaa !68
  %18 = icmp ne i64 %16, %17
  %19 = xor i1 %18, true
  %20 = xor i1 %19, true
  %21 = zext i1 %20 to i64
  %22 = call i64 @llvm.expect.i64(i64 %21, i64 0)
  %23 = icmp ne i64 %22, 0
  br i1 %23, label %24, label %33

24:                                               ; preds = %3
  call void @llvm.lifetime.start.p0(i64 8, ptr %8) #3
  call void @_ZN5arrow6Status7InvalidIJRA15_KcRPS2_RA16_S2_RlRA17_S2_S9_EEES0_DpOT_(ptr dead_on_unwind writable sret(%"class.arrow::Status") align 8 %8, ptr noundef nonnull align 1 dereferenceable(15) @.str.51, ptr noundef nonnull align 8 dereferenceable(8) %6, ptr noundef nonnull align 1 dereferenceable(16) @.str.52, ptr noundef nonnull align 8 dereferenceable(8) %5, ptr noundef nonnull align 1 dereferenceable(17) @.str.53, ptr noundef nonnull align 8 dereferenceable(8) %7)
  %25 = call noundef ptr @_ZN5arrow12_GLOBAL__N_110DebugState8InstanceEv()
  %26 = load ptr, ptr %4, align 8, !tbaa !10
  %27 = load i64, ptr %5, align 8, !tbaa !68
  invoke void @_ZN5arrow12_GLOBAL__N_110DebugState6InvokeEPhlRKNS_6StatusE(ptr noundef nonnull align 8 dereferenceable(72) %25, ptr noundef %26, i64 noundef %27, ptr noundef nonnull align 8 dereferenceable(8) %8)
          to label %28 unwind label %29

28:                                               ; preds = %24
  call void @_ZN5arrow6StatusD2Ev(ptr noundef nonnull align 8 dereferenceable(8) %8) #3
  call void @llvm.lifetime.end.p0(i64 8, ptr %8) #3
  br label %33

29:                                               ; preds = %24
  %30 = landingpad { ptr, i32 }
          cleanup
  %31 = extractvalue { ptr, i32 } %30, 0
  store ptr %31, ptr %9, align 8
  %32 = extractvalue { ptr, i32 } %30, 1
  store i32 %32, ptr %10, align 4
  call void @_ZN5arrow6StatusD2Ev(ptr noundef nonnull align 8 dereferenceable(8) %8) #3
  call void @llvm.lifetime.end.p0(i64 8, ptr %8) #3
  call void @llvm.lifetime.end.p0(i64 8, ptr %7) #3
  br label %34

33:                                               ; preds = %28, %3
  call void @llvm.lifetime.end.p0(i64 8, ptr %7) #3
  ret void

34:                                               ; preds = %29
  %35 = load ptr, ptr %9, align 8
  %36 = load i32, ptr %10, align 4
  %37 = insertvalue { ptr, i32 } poison, ptr %35, 0
  %38 = insertvalue { ptr, i32 } %37, i32 %36, 1
  resume { ptr, i32 } %38
}