; Function Attrs: mustprogress uwtable
define internal fastcc void @_ZN5arrow12_GLOBAL__N_114DebugAllocatorINS0_15SystemAllocatorEE18CheckAllocatedAreaEPhlPKc(ptr noundef %0, i64 noundef %1, ptr noundef %2) unnamed_addr #4 align 2 personality ptr @__gxx_personality_v0 {
  %4 = alloca i64, align 8
  %5 = alloca ptr, align 8
  %6 = alloca i64, align 8
  %7 = alloca %"class.arrow::Status", align 8
  store i64 %1, ptr %4, align 8, !tbaa !108
  store ptr %2, ptr %5, align 8, !tbaa !106
  call void @llvm.lifetime.start.p0(i64 8, ptr nonnull %6) #32
  %8 = getelementptr inbounds i8, ptr %0, i64 %1
  %.0.copyload.i = load i64, ptr %8, align 1
  %9 = xor i64 %.0.copyload.i, -1738363128204640648
  store i64 %9, ptr %6, align 8, !tbaa !108
  %.not = icmp eq i64 %9, %1
  br i1 %.not, label %27, label %10, !prof !27

10:                                               ; preds = %3
  call void @llvm.lifetime.start.p0(i64 8, ptr nonnull %7) #32
  call void @_ZN5arrow6Status8FromArgsIJRA15_KcRPS2_RA16_S2_RlRA17_S2_S9_EEES0_NS_10StatusCodeEDpOT_(ptr dead_on_unwind nonnull writable sret(%"class.arrow::Status") align 8 %7, i8 noundef signext 4, ptr noundef nonnull align 1 dereferenceable(15) @.str.51, ptr noundef nonnull align 8 dereferenceable(8) %5, ptr noundef nonnull align 1 dereferenceable(16) @.str.52, ptr noundef nonnull align 8 dereferenceable(8) %4, ptr noundef nonnull align 1 dereferenceable(17) @.str.53, ptr noundef nonnull align 8 dereferenceable(8) %6)
  call fastcc void @_ZN5arrow12_GLOBAL__N_110DebugState8InstanceEv()
  %11 = load i64, ptr %4, align 8, !tbaa !108
  invoke fastcc void @_ZN5arrow12_GLOBAL__N_110DebugState6InvokeEPhlRKNS_6StatusE(ptr noundef nonnull %0, i64 noundef %11, ptr noundef nonnull align 8 dereferenceable(8) %7)
          to label %12 unwind label %19

12:                                               ; preds = %10
  %13 = load ptr, ptr %7, align 8, !tbaa !21
  %.not.i = icmp eq ptr %13, null
  br i1 %.not.i, label %_ZN5arrow6StatusD2Ev.exit, label %14, !prof !27

14:                                               ; preds = %12
  %15 = getelementptr inbounds nuw i8, ptr %13, i64 1
  %16 = load i8, ptr %15, align 1, !tbaa !28, !range !8, !noundef !9
  %17 = trunc nuw i8 %16 to i1
  br i1 %17, label %_ZN5arrow6StatusD2Ev.exit, label %18

18:                                               ; preds = %14
  call void @_ZN5arrow6Status11DeleteStateEv(ptr noundef nonnull align 8 dereferenceable(8) %7) #32
  br label %_ZN5arrow6StatusD2Ev.exit

_ZN5arrow6StatusD2Ev.exit:                        ; preds = %12, %14, %18
  call void @llvm.lifetime.end.p0(i64 8, ptr nonnull %7) #32
  br label %27

19:                                               ; preds = %10
  %20 = landingpad { ptr, i32 }
          cleanup
  %21 = load ptr, ptr %7, align 8, !tbaa !21
  %.not.i3 = icmp eq ptr %21, null
  br i1 %.not.i3, label %_ZN5arrow6StatusD2Ev.exit4, label %22, !prof !27

22:                                               ; preds = %19
  %23 = getelementptr inbounds nuw i8, ptr %21, i64 1
  %24 = load i8, ptr %23, align 1, !tbaa !28, !range !8, !noundef !9
  %25 = trunc nuw i8 %24 to i1
  br i1 %25, label %_ZN5arrow6StatusD2Ev.exit4, label %26

26:                                               ; preds = %22
  call void @_ZN5arrow6Status11DeleteStateEv(ptr noundef nonnull align 8 dereferenceable(8) %7) #32
  br label %_ZN5arrow6StatusD2Ev.exit4

_ZN5arrow6StatusD2Ev.exit4:                       ; preds = %19, %22, %26
  call void @llvm.lifetime.end.p0(i64 8, ptr nonnull %7) #32
  call void @llvm.lifetime.end.p0(i64 8, ptr nonnull %6) #32
  resume { ptr, i32 } %20

27:                                               ; preds = %_ZN5arrow6StatusD2Ev.exit, %3
  call void @llvm.lifetime.end.p0(i64 8, ptr nonnull %6) #32
  ret void
}